-----BEGIN CERTIFICATE-----
MIIFpzCCA4+gAwIBAgIJALqkPomhXgCmMA0GCSqGSIb3DQEBCwUAMGoxCzAJBgNV
BAYTAkZSMQ8wDQYDVQQIDAZGcmFuY2UxEjAQBgNVBAoMCW5haWx5ay5mcjESMBAG
A1UEAwwJbmFpbHlrLmZyMSIwIAYJKoZIhvcNAQkBFhNuYWlseWtfY2FAbmFpbHlr
LmZyMB4XDTE0MTExMTEyMTE1NloXDTIwMDUwMzEyMTE1NlowajELMAkGA1UEBhMC
RlIxDzANBgNVBAgMBkZyYW5jZTESMBAGA1UECgwJbmFpbHlrLmZyMRIwEAYDVQQD
DAluYWlseWsuZnIxIjAgBgkqhkiG9w0BCQEWE25haWx5a19jYUBuYWlseWsuZnIw
ggIiMA0GCSqGSIb3DQEBAQUAA4ICDwAwggIKAoICAQDRFHu1a5ofBTLjmrX7/qDV
OypUxSu2UD9+FME1NQRoJBNzKul8qmZnPh/RTYG8ELTg0VhTb70/tS1N+IS97NMx
DySmtGNJjNoBgg7Imq58fzzQpHVXI5J4UJ5ikOy7CkadRsJCakuCqKio0ezCRTOV
BPpdoq9B0I4C+itGkrF9EwOHeCpmcL1tlQkaDvDTmT75+U5cCq0Hd5tc4nvyEMsQ
AxPcWmrW4bbtICusvlYNBDbUrkoBfCVyUBHM3t4YWpiM7Od/cFuLOaujvlaXAlmG
QLMJhczPrenVqktR033tE8Q+ANmkkk2iekgvWCp5KHmwLUOMrAfQj/wMK2e1KkKX
MrW5tHWPEZe8/Xank9rzAvPo79gZB2bcZuezlQ7tLZPb/WmLihPCNcaCFOi0d0dh
0HoYIFTWLUkEr+cnnCA1/qCZMYuJqk3145PY9QwKMqTE8Gh8O0e69sOeQMGlfrPY
GUbvSVOl9oyFThD72tkCEH0cvCMphvg0Che5EaEq3rjP+lzQt0rElyeBBPQevvaC
F/z3oRcB/B/4dOwO/tkjH4KYMGmCIc28+jSvnZ9jkEX/wDKV4XYOPFNpgVr452Fq
PhTPB9ki75FVS0YfBdg7j6gXiChTwX59VaiTSZbFpKj6l3yexdGgi14RYRgKzcZl
u28luqOwGHEZqw7p+EuVCwIDAQABo1AwTjAdBgNVHQ4EFgQU4AZAmFKEh/12yU9F
VYTDphxh3RYwHwYDVR0jBBgwFoAU4AZAmFKEh/12yU9FVYTDphxh3RYwDAYDVR0T
BAUwAwEB/zANBgkqhkiG9w0BAQsFAAOCAgEAbaASh3Tt8f/rAwkdbuweVQA35+Ww
75vFNuguKECGv9V2WUFT+wvpFag9XfxZly6VHYGkVZpQse7dBBQvog81BJSva5q8
LGYDZyyOdyJUXvVhFmOpvPfWg9FNZKiWO6SW5pW4Z2ACAQ1NCm2ZLu459qYgtxGS
XXRzbFdN4qy2SPLL1d682IUmSySjiWDbL4eV1mFu8iN+FXpudxinDWQrBW1puXVo
5G2JjLAvuCmyNiRhBaglOSKMCSDf1F+HJ4jbZGlxZjC3J6Fx6Df08ZidluNlnmJ+
1V5LdSqy0HbP+Y1JvkeZCq+h6k2XzERlVRc4SYLU1zqjF0Kn5daRJY4PJuiBR6L1
1BQZ9gpF82cfyfc9uozoSxZ/w4aAVo9OAIn9XL70jH7tlyLjo6kXgc2O+6DYtATE
+eMYdrxAmTPFn6+GWSastDm986+Oojo1uZ7hl0QFnfmU4JKRAQQXApnIwd/Vs//+
P9fsCX0pOBdUs532tyeyEino2njNQZCgGPwAsWgh/KdtyX9OSwqh0ZzGunyqR1aE
YhuH7GY1SwXWt4Mjxl+5HnYCXVFsDwLL5ivlK9wwpVrnW7CgV+jOIrEmw9O1GuN7
iwogodR3eDtOQM1dRSrSrVlCrA2glJVa04Jcad84+7q34Yop8thO7k1j6knt1c5k
2r+kjjAfenWlDps=
-----END CERTIFICATE-----
Certificate:
    Data:
        Version: 3 (0x2)
        Serial Number: 13448943148073877670 (0xbaa43e89a15e00a6)
    Signature Algorithm: sha256WithRSAEncryption
        Issuer: C=FR, ST=France, O=nailyk.fr, CN=nailyk.fr/emailAddress=nailyk_ca@nailyk.fr
        Validity
            Not Before: Nov 11 12:11:56 2014 GMT
            Not After : May  3 12:11:56 2020 GMT
        Subject: C=FR, ST=France, O=nailyk.fr, CN=nailyk.fr/emailAddress=nailyk_ca@nailyk.fr
        Subject Public Key Info:
            Public Key Algorithm: rsaEncryption
                Public-Key: (4096 bit)
                Modulus:
                    00:d1:14:7b:b5:6b:9a:1f:05:32:e3:9a:b5:fb:fe:
                    a0:d5:3b:2a:54:c5:2b:b6:50:3f:7e:14:c1:35:35:
                    04:68:24:13:73:2a:e9:7c:aa:66:67:3e:1f:d1:4d:
                    81:bc:10:b4:e0:d1:58:53:6f:bd:3f:b5:2d:4d:f8:
                    84:bd:ec:d3:31:0f:24:a6:b4:63:49:8c:da:01:82:
                    0e:c8:9a:ae:7c:7f:3c:d0:a4:75:57:23:92:78:50:
                    9e:62:90:ec:bb:0a:46:9d:46:c2:42:6a:4b:82:a8:
                    a8:a8:d1:ec:c2:45:33:95:04:fa:5d:a2:af:41:d0:
                    8e:02:fa:2b:46:92:b1:7d:13:03:87:78:2a:66:70:
                    bd:6d:95:09:1a:0e:f0:d3:99:3e:f9:f9:4e:5c:0a:
                    ad:07:77:9b:5c:e2:7b:f2:10:cb:10:03:13:dc:5a:
                    6a:d6:e1:b6:ed:20:2b:ac:be:56:0d:04:36:d4:ae:
                    4a:01:7c:25:72:50:11:cc:de:de:18:5a:98:8c:ec:
                    e7:7f:70:5b:8b:39:ab:a3:be:56:97:02:59:86:40:
                    b3:09:85:cc:cf:ad:e9:d5:aa:4b:51:d3:7d:ed:13:
                    c4:3e:00:d9:a4:92:4d:a2:7a:48:2f:58:2a:79:28:
                    79:b0:2d:43:8c:ac:07:d0:8f:fc:0c:2b:67:b5:2a:
                    42:97:32:b5:b9:b4:75:8f:11:97:bc:fd:76:a7:93:
                    da:f3:02:f3:e8:ef:d8:19:07:66:dc:66:e7:b3:95:
                    0e:ed:2d:93:db:fd:69:8b:8a:13:c2:35:c6:82:14:
                    e8:b4:77:47:61:d0:7a:18:20:54:d6:2d:49:04:af:
                    e7:27:9c:20:35:fe:a0:99:31:8b:89:aa:4d:f5:e3:
                    93:d8:f5:0c:0a:32:a4:c4:f0:68:7c:3b:47:ba:f6:
                    c3:9e:40:c1:a5:7e:b3:d8:19:46:ef:49:53:a5:f6:
                    8c:85:4e:10:fb:da:d9:02:10:7d:1c:bc:23:29:86:
                    f8:34:0a:17:b9:11:a1:2a:de:b8:cf:fa:5c:d0:b7:
                    4a:c4:97:27:81:04:f4:1e:be:f6:82:17:fc:f7:a1:
                    17:01:fc:1f:f8:74:ec:0e:fe:d9:23:1f:82:98:30:
                    69:82:21:cd:bc:fa:34:af:9d:9f:63:90:45:ff:c0:
                    32:95:e1:76:0e:3c:53:69:81:5a:f8:e7:61:6a:3e:
                    14:cf:07:d9:22:ef:91:55:4b:46:1f:05:d8:3b:8f:
                    a8:17:88:28:53:c1:7e:7d:55:a8:93:49:96:c5:a4:
                    a8:fa:97:7c:9e:c5:d1:a0:8b:5e:11:61:18:0a:cd:
                    c6:65:bb:6f:25:ba:a3:b0:18:71:19:ab:0e:e9:f8:
                    4b:95:0b
                Exponent: 65537 (0x10001)
        X509v3 extensions:
            X509v3 Subject Key Identifier: 
                E0:06:40:98:52:84:87:FD:76:C9:4F:45:55:84:C3:A6:1C:61:DD:16
            X509v3 Authority Key Identifier: 
                keyid:E0:06:40:98:52:84:87:FD:76:C9:4F:45:55:84:C3:A6:1C:61:DD:16

            X509v3 Basic Constraints: 
                CA:TRUE
    Signature Algorithm: sha256WithRSAEncryption
         6d:a0:12:87:74:ed:f1:ff:eb:03:09:1d:6e:ec:1e:55:00:37:
         e7:e5:b0:ef:9b:c5:36:e8:2e:28:40:86:bf:d5:76:59:41:53:
         fb:0b:e9:15:a8:3d:5d:fc:59:97:2e:95:1d:81:a4:55:9a:50:
         b1:ee:dd:04:14:2f:a2:0f:35:04:94:af:6b:9a:bc:2c:66:03:
         67:2c:8e:77:22:54:5e:f5:61:16:63:a9:bc:f7:d6:83:d1:4d:
         64:a8:96:3b:a4:96:e6:95:b8:67:60:02:01:0d:4d:0a:6d:99:
         2e:ee:39:f6:a6:20:b7:11:92:5d:74:73:6c:57:4d:e2:ac:b6:
         48:f2:cb:d5:de:bc:d8:85:26:4b:24:a3:89:60:db:2f:87:95:
         d6:61:6e:f2:23:7e:15:7a:6e:77:18:a7:0d:64:2b:05:6d:69:
         b9:75:68:e4:6d:89:8c:b0:2f:b8:29:b2:36:24:61:05:a8:25:
         39:22:8c:09:20:df:d4:5f:87:27:88:db:64:69:71:66:30:b7:
         27:a1:71:e8:37:f4:f1:98:9d:96:e3:65:9e:62:7e:d5:5e:4b:
         75:2a:b2:d0:76:cf:f9:8d:49:be:47:99:0a:af:a1:ea:4d:97:
         cc:44:65:55:17:38:49:82:d4:d7:3a:a3:17:42:a7:e5:d6:91:
         25:8e:0f:26:e8:81:47:a2:f5:d4:14:19:f6:0a:45:f3:67:1f:
         c9:f7:3d:ba:8c:e8:4b:16:7f:c3:86:80:56:8f:4e:00:89:fd:
         5c:be:f4:8c:7e:ed:97:22:e3:a3:a9:17:81:cd:8e:fb:a0:d8:
         b4:04:c4:f9:e3:18:76:bc:40:99:33:c5:9f:af:86:59:26:ac:
         b4:39:bd:f3:af:8e:a2:3a:35:b9:9e:e1:97:44:05:9d:f9:94:
         e0:92:91:01:04:17:02:99:c8:c1:df:d5:b3:ff:fe:3f:d7:ec:
         09:7d:29:38:17:54:b3:9d:f6:b7:27:b2:12:29:e8:da:78:cd:
         41:90:a0:18:fc:00:b1:68:21:fc:a7:6d:c9:7f:4e:4b:0a:a1:
         d1:9c:c6:ba:7c:aa:47:56:84:62:1b:87:ec:66:35:4b:05:d6:
         b7:83:23:c6:5f:b9:1e:76:02:5d:51:6c:0f:02:cb:e6:2b:e5:
         2b:dc:30:a5:5a:e7:5b:b0:a0:57:e8:ce:22:b1:26:c3:d3:b5:
         1a:e3:7b:8b:0a:20:a1:d4:77:78:3b:4e:40:cd:5d:45:2a:d2:
         ad:59:42:ac:0d:a0:94:95:5a:d3:82:5c:69:df:38:fb:ba:b7:
         e1:8a:29:f2:d8:4e:ee:4d:63:ea:49:ed:d5:ce:64:da:bf:a4:
         8e:30:1f:7a:75:a5:0e:9b
